target datalayout = "e-m:e-p270:32:32-p271:32:32-p272:64:64-i64:64-i128:128-f80:128-n8:16:32:64-S128"
target triple = "x86_64-pc-linux-gnu"

%"struct.Luau::AstName" = type { ptr }
%"class.Luau::AstNode.base" = type <{ ptr, i32, %"struct.Luau::Location" }>
%"struct.Luau::Location" = type { %"struct.Luau::Position", %"struct.Luau::Position" }
%"struct.Luau::Position" = type { i32, i32 }
%"class.std::optional.83" = type { %"struct.std::_Optional_base.84" }
%"struct.std::_Optional_base.84" = type { %"struct.std::_Optional_payload.86" }
%"struct.std::_Optional_payload.86" = type { %"struct.std::_Optional_payload_base.base.88", [3 x i8] }
%"struct.std::_Optional_payload_base.base.88" = type <{ %"union.std::_Optional_payload_base<Luau::Location>::_Storage", i8 }>
%"union.std::_Optional_payload_base<Luau::Location>::_Storage" = type { %"struct.Luau::Location" }
%"class.Luau::AstType.base" = type { %"class.Luau::AstNode.base" }
%"struct.Luau::AstTableProp" = type { %"struct.Luau::AstName", %"struct.Luau::Location", ptr, i32, %"class.std::optional.83" }
%"class.Luau::AstTypeTable" = type { %"class.Luau::AstType.base", %"struct.Luau::AstArray.124", ptr }
%"struct.Luau::AstArray.124" = type { ptr, i64 }
%"struct.Luau::AstTableIndexer" = type { ptr, ptr, %"struct.Luau::Location", i32, %"class.std::optional.83" }

; Function Attrs: mustprogress nounwind uwtable
define linkonce_odr dso_local noundef ptr @_ZNK4Luau8AstArrayINS_12AstTablePropEE3endEv(ptr noundef nonnull align 8 dereferenceable(16) %0) #4 comdat align 2 {
  %2 = alloca ptr, align 8
  store ptr %0, ptr %2, align 8, !tbaa !592
  %3 = load ptr, ptr %2, align 8
  %4 = getelementptr inbounds nuw %"struct.Luau::AstArray.124", ptr %3, i32 0, i32 0
  %5 = load ptr, ptr %4, align 8, !tbaa !611
  %6 = getelementptr inbounds nuw %"struct.Luau::AstArray.124", ptr %3, i32 0, i32 1
  %7 = load i64, ptr %6, align 8, !tbaa !612
  %8 = getelementptr inbounds nuw %"struct.Luau::AstTableProp", ptr %5, i64 %7
  ret ptr %8
}

; Function Attrs: mustprogress nounwind uwtable
define linkonce_odr dso_local noundef ptr @_ZNK4Luau8AstArrayINS_12AstTablePropEE5beginEv(ptr noundef nonnull align 8 dereferenceable(16) %0) #4 comdat align 2 {
  %2 = alloca ptr, align 8
  store ptr %0, ptr %2, align 8, !tbaa !592
  %3 = load ptr, ptr %2, align 8
  %4 = getelementptr inbounds nuw %"struct.Luau::AstArray.124", ptr %3, i32 0, i32 0
  %5 = load ptr, ptr %4, align 8, !tbaa !611
  ret ptr %5
}

; Function Attrs: mustprogress uwtable
define dso_local void @_ZN4Luau20DataFlowGraphBuilder9visitTypeEPNS_12AstTypeTableE(ptr noundef nonnull align 8 dereferenceable(336) %0, ptr noundef %1) #2 align 2 {
  %3 = alloca ptr, align 8
  %4 = alloca ptr, align 8
  %5 = alloca ptr, align 8
  %6 = alloca ptr, align 8
  %7 = alloca ptr, align 8
  %8 = alloca %"struct.Luau::AstTableProp", align 8
  store ptr %0, ptr %3, align 8, !tbaa !154
  store ptr %1, ptr %4, align 8, !tbaa !430
  %9 = load ptr, ptr %3, align 8
  call void @llvm.lifetime.start.p0(i64 8, ptr %5) #17
  %10 = load ptr, ptr %4, align 8, !tbaa !430
  %11 = getelementptr inbounds nuw %"class.Luau::AstTypeTable", ptr %10, i32 0, i32 1
  store ptr %11, ptr %5, align 8, !tbaa !592
  call void @llvm.lifetime.start.p0(i64 8, ptr %6) #17
  %12 = load ptr, ptr %5, align 8, !tbaa !592
  %13 = call noundef ptr @_ZNK4Luau8AstArrayINS_12AstTablePropEE5beginEv(ptr noundef nonnull align 8 dereferenceable(16) %12)
  store ptr %13, ptr %6, align 8, !tbaa !594
  call void @llvm.lifetime.start.p0(i64 8, ptr %7) #17
  %14 = load ptr, ptr %5, align 8, !tbaa !592
  %15 = call noundef ptr @_ZNK4Luau8AstArrayINS_12AstTablePropEE3endEv(ptr noundef nonnull align 8 dereferenceable(16) %14)
  store ptr %15, ptr %7, align 8, !tbaa !594
  br label %16

16:                                               ; preds = %25, %2
  %17 = load ptr, ptr %6, align 8, !tbaa !594
  %18 = load ptr, ptr %7, align 8, !tbaa !594
  %19 = icmp ne ptr %17, %18
  br i1 %19, label %21, label %20

20:                                               ; preds = %16
  call void @llvm.lifetime.end.p0(i64 8, ptr %7) #17
  call void @llvm.lifetime.end.p0(i64 8, ptr %6) #17
  call void @llvm.lifetime.end.p0(i64 8, ptr %5) #17
  br label %28

21:                                               ; preds = %16
  call void @llvm.lifetime.start.p0(i64 56, ptr %8) #17
  %22 = load ptr, ptr %6, align 8, !tbaa !594
  call void @llvm.memcpy.p0.p0.i64(ptr align 8 %8, ptr align 8 %22, i64 56, i1 false)
  %23 = getelementptr inbounds nuw %"struct.Luau::AstTableProp", ptr %8, i32 0, i32 2
  %24 = load ptr, ptr %23, align 8, !tbaa !596
  call void @_ZN4Luau20DataFlowGraphBuilder9visitTypeEPNS_7AstTypeE(ptr noundef nonnull align 8 dereferenceable(336) %9, ptr noundef %24)
  call void @llvm.lifetime.end.p0(i64 56, ptr %8) #17
  br label %25

25:                                               ; preds = %21
  %26 = load ptr, ptr %6, align 8, !tbaa !594
  %27 = getelementptr inbounds nuw %"struct.Luau::AstTableProp", ptr %26, i32 1
  store ptr %27, ptr %6, align 8, !tbaa !594
  br label %16

28:                                               ; preds = %20
  %29 = load ptr, ptr %4, align 8, !tbaa !430
  %30 = getelementptr inbounds nuw %"class.Luau::AstTypeTable", ptr %29, i32 0, i32 2
  %31 = load ptr, ptr %30, align 8, !tbaa !599
  %32 = icmp ne ptr %31, null
  br i1 %32, label %33, label %44

33:                                               ; preds = %28
  %34 = load ptr, ptr %4, align 8, !tbaa !430
  %35 = getelementptr inbounds nuw %"class.Luau::AstTypeTable", ptr %34, i32 0, i32 2
  %36 = load ptr, ptr %35, align 8, !tbaa !599
  %37 = getelementptr inbounds nuw %"struct.Luau::AstTableIndexer", ptr %36, i32 0, i32 0
  %38 = load ptr, ptr %37, align 8, !tbaa !603
  call void @_ZN4Luau20DataFlowGraphBuilder9visitTypeEPNS_7AstTypeE(ptr noundef nonnull align 8 dereferenceable(336) %9, ptr noundef %38)
  %39 = load ptr, ptr %4, align 8, !tbaa !430
  %40 = getelementptr inbounds nuw %"class.Luau::AstTypeTable", ptr %39, i32 0, i32 2
  %41 = load ptr, ptr %40, align 8, !tbaa !599
  %42 = getelementptr inbounds nuw %"struct.Luau::AstTableIndexer", ptr %41, i32 0, i32 1
  %43 = load ptr, ptr %42, align 8, !tbaa !605
  call void @_ZN4Luau20DataFlowGraphBuilder9visitTypeEPNS_7AstTypeE(ptr noundef nonnull align 8 dereferenceable(336) %9, ptr noundef %43)
  br label %44

44:                                               ; preds = %33, %28
  ret void
}