; Function Attrs: mustprogress uwtable
define dso_local void @_ZN4Luau20DataFlowGraphBuilder9visitTypeEPNS_12AstTypeTableE(ptr noundef nonnull align 8 dereferenceable(336) %0, ptr noundef readonly captures(none) %1) local_unnamed_addr #2 align 2 {
  %3 = getelementptr inbounds nuw i8, ptr %1, i64 32
  %4 = load ptr, ptr %3, align 8, !tbaa !392
  %5 = getelementptr inbounds nuw i8, ptr %1, i64 40
  %6 = load i64, ptr %5, align 8, !tbaa !395
  %7 = getelementptr inbounds nuw %"struct.Luau::AstTableProp", ptr %4, i64 %6
  %.not13 = icmp eq i64 %6, 0
  br i1 %.not13, label %._crit_edge, label %.lr.ph

._crit_edge:                                      ; preds = %.lr.ph, %2
  %8 = getelementptr inbounds nuw i8, ptr %1, i64 48
  %9 = load ptr, ptr %8, align 8, !tbaa !396
  %.not12 = icmp eq ptr %9, null
  br i1 %.not12, label %16, label %11

.lr.ph:                                           ; preds = %2, %.lr.ph
  %.014 = phi ptr [ %10, %.lr.ph ], [ %4, %2 ]
  %.sroa.3.0..sroa_idx = getelementptr inbounds nuw i8, ptr %.014, i64 24
  %.sroa.3.0.copyload = load ptr, ptr %.sroa.3.0..sroa_idx, align 8
  tail call void @_ZN4Luau20DataFlowGraphBuilder9visitTypeEPNS_7AstTypeE(ptr noundef nonnull align 8 dereferenceable(336) %0, ptr noundef %.sroa.3.0.copyload)
  %10 = getelementptr inbounds nuw i8, ptr %.014, i64 56
  %.not = icmp eq ptr %10, %7
  br i1 %.not, label %._crit_edge, label %.lr.ph

11:                                               ; preds = %._crit_edge
  %12 = load ptr, ptr %9, align 8, !tbaa !400
  tail call void @_ZN4Luau20DataFlowGraphBuilder9visitTypeEPNS_7AstTypeE(ptr noundef nonnull align 8 dereferenceable(336) %0, ptr noundef %12)
  %13 = load ptr, ptr %8, align 8, !tbaa !396
  %14 = getelementptr inbounds nuw i8, ptr %13, i64 8
  %15 = load ptr, ptr %14, align 8, !tbaa !487
  tail call void @_ZN4Luau20DataFlowGraphBuilder9visitTypeEPNS_7AstTypeE(ptr noundef nonnull align 8 dereferenceable(336) %0, ptr noundef %15)
  br label %16

16:                                               ; preds = %11, %._crit_edge
  ret void
}